ccopy_reg
_reconstructor
p0
(croom.algo
Simplex
p1
c__builtin__
object
p2
Ntp3
Rp4
(dp5
S'level'
p6
I2
sS'players'
p7
I2
sS'points'
p8
(lp9
g0
(croom.algo
Point
p10
g2
Ntp11
Rp12
(dp13
g6
I2
sS'coordinates'
p14
(lp15
I3
asS'label'
p16
I2
sbag0
(g10
g2
Ntp17
Rp18
(dp19
g6
I2
sg14
(lp20
I4
asg16
I1
sbag0
(g10
g2
Ntp21
Rp22
(dp23
g6
I3
sg14
(lp24
I7
asg16
NsbasS'newPoint'
p25
I2
sS'dimension'
p26
I3
sS'marker'
p27
I1
sb.